; Function Attrs: nofree norecurse nosync nounwind memory(argmem: readwrite) uwtable
define dso_local void @bit_consolidate(ptr noundef captures(none) %0) local_unnamed_addr #2 {
  %2 = getelementptr inbounds nuw i8, ptr %0, i64 8
  %3 = load i64, ptr %2, align 8
  %invariant.gep.i = getelementptr i8, ptr %0, i64 16
  %.not17.i = icmp ult i64 %3, 64
  br i1 %.not17.i, label %._crit_edge.i, label %.lr.ph.i

.lr.ph.i:                                         ; preds = %1, %.lr.ph.i
  %4 = phi i64 [ %10, %.lr.ph.i ], [ 64, %1 ]
  %.019.i = phi i32 [ %9, %.lr.ph.i ], [ 0, %1 ]
  %.01418.i = phi i64 [ %4, %.lr.ph.i ], [ 0, %1 ]
  %5 = ashr exact i64 %.01418.i, 3
  %gep.i = getelementptr i8, ptr %invariant.gep.i, i64 %5
  %6 = load i64, ptr %gep.i, align 8
  %7 = tail call range(i64 0, 65) i64 @llvm.ctpop.i64(i64 %6)
  %8 = trunc nuw nsw i64 %7 to i32
  %9 = add nuw nsw i32 %.019.i, %8
  %10 = add i64 %4, 64
  %.not.i = icmp ugt i64 %10, %3
  br i1 %.not.i, label %._crit_edge.i, label %.lr.ph.i, !llvm.loop !20

._crit_edge.i:                                    ; preds = %.lr.ph.i, %1
  %.014.lcssa.i = phi i64 [ 0, %1 ], [ %4, %.lr.ph.i ]
  %.0.lcssa.i = phi i32 [ 0, %1 ], [ %9, %.lr.ph.i ]
  %11 = icmp slt i64 %.014.lcssa.i, %3
  br i1 %11, label %12, label %bit_set_count.exit

12:                                               ; preds = %._crit_edge.i
  %13 = and i64 %3, 63
  %notmask.i = shl nsw i64 -1, %13
  %14 = xor i64 %notmask.i, -1
  %15 = ashr exact i64 %.014.lcssa.i, 3
  %16 = getelementptr i8, ptr %0, i64 %15
  %17 = getelementptr i8, ptr %16, i64 16
  %18 = load i64, ptr %17, align 8
  %19 = and i64 %18, %14
  %20 = tail call range(i64 0, 64) i64 @llvm.ctpop.i64(i64 %19)
  %21 = trunc nuw nsw i64 %20 to i32
  %22 = add nuw nsw i32 %.0.lcssa.i, %21
  br label %bit_set_count.exit

bit_set_count.exit:                               ; preds = %._crit_edge.i, %12
  %.1.i = phi i32 [ %22, %12 ], [ %.0.lcssa.i, %._crit_edge.i ]
  %.not = icmp eq i32 %.1.i, 0
  br i1 %.not, label %bit_nset.exit, label %23

23:                                               ; preds = %bit_set_count.exit
  %24 = sext i32 %.1.i to i64
  %25 = icmp sgt i64 %3, %24
  br i1 %25, label %26, label %bit_nset.exit

26:                                               ; preds = %23
  %27 = add nsw i64 %3, -1
  %28 = and i64 %24, -9223372036854775801
  %29 = icmp sgt i64 %28, 0
  br i1 %29, label %.lr.ph.i11, label %.critedge.preheader.i

.critedge.preheader.i:                            ; preds = %.lr.ph.i11, %26
  %.017.lcssa.i = phi i64 [ %24, %26 ], [ %30, %.lr.ph.i11 ]
  %.not1825.i.not = icmp sgt i64 %3, %.017.lcssa.i
  br i1 %.not1825.i.not, label %.lr.ph27.i, label %.critedge2.i

.lr.ph.i11:                                       ; preds = %26, %.lr.ph.i11
  %.01722.i = phi i64 [ %30, %.lr.ph.i11 ], [ %24, %26 ]
  %30 = add nsw i64 %.01722.i, 1
  %31 = and i64 %.01722.i, 63
  %32 = shl nuw i64 1, %31
  %33 = xor i64 %32, -1
  %34 = ashr i64 %.01722.i, 6
  %gep.i12 = getelementptr i64, ptr %invariant.gep.i, i64 %34
  %35 = load i64, ptr %gep.i12, align 8
  %36 = and i64 %35, %33
  store i64 %36, ptr %gep.i12, align 8
  %.not.i13 = icmp slt i64 %.01722.i, %27
  %37 = and i64 %30, -9223372036854775801
  %38 = icmp sgt i64 %37, 0
  %or.cond.i = and i1 %.not.i13, %38
  br i1 %or.cond.i, label %.lr.ph.i11, label %.critedge.preheader.i, !llvm.loop !8

.lr.ph27.i:                                       ; preds = %.critedge.preheader.i, %.critedge.i
  %.026.i = phi i64 [ %42, %.critedge.i ], [ %27, %.critedge.preheader.i ]
  %39 = add nsw i64 %.026.i, 1
  %40 = and i64 %39, -9223372036854775801
  %41 = icmp sgt i64 %40, 0
  br i1 %41, label %.critedge.i, label %.critedge2.i

.critedge.i:                                      ; preds = %.lr.ph27.i
  %42 = add nsw i64 %.026.i, -1
  %43 = and i64 %.026.i, 63
  %44 = shl nuw i64 1, %43
  %45 = xor i64 %44, -1
  %46 = ashr i64 %.026.i, 6
  %gep24.i = getelementptr i64, ptr %invariant.gep.i, i64 %46
  %47 = load i64, ptr %gep24.i, align 8
  %48 = and i64 %47, %45
  store i64 %48, ptr %gep24.i, align 8
  %.not18.not.i = icmp sgt i64 %.026.i, %.017.lcssa.i
  br i1 %.not18.not.i, label %.lr.ph27.i, label %.critedge2.i, !llvm.loop !11

.critedge2.i:                                     ; preds = %.critedge.i, %.lr.ph27.i, %.critedge.preheader.i
  %.0.lcssa.i10 = phi i64 [ %27, %.critedge.preheader.i ], [ %.026.i, %.lr.ph27.i ], [ %42, %.critedge.i ]
  %49 = icmp sgt i64 %.0.lcssa.i10, %.017.lcssa.i
  br i1 %49, label %50, label %bit_nclear.exit

50:                                               ; preds = %.critedge2.i
  %51 = ashr i64 %.017.lcssa.i, 3
  %52 = getelementptr inbounds i8, ptr %invariant.gep.i, i64 %51
  %reass.sub = sub i64 %.0.lcssa.i10, %.017.lcssa.i
  %53 = add i64 %reass.sub, 1
  %54 = sdiv i64 %53, 8
  tail call void @llvm.memset.p0.i64(ptr nonnull align 1 %52, i8 0, i64 %54, i1 false)
  br label %bit_nclear.exit

bit_nclear.exit:                                  ; preds = %.critedge2.i, %50
  %.not1825.i19 = icmp slt i32 %.1.i, 1
  br i1 %.not1825.i19, label %bit_nset.exit, label %.lr.ph27.i20.preheader

.lr.ph27.i20.preheader:                           ; preds = %bit_nclear.exit
  %55 = add nsw i32 %.1.i, -1
  %56 = zext nneg i32 %55 to i64
  br label %.lr.ph27.i20

.lr.ph27.i20:                                     ; preds = %.lr.ph27.i20.preheader, %.critedge.i25
  %.026.i21 = phi i64 [ %59, %.critedge.i25 ], [ %56, %.lr.ph27.i20.preheader ]
  %57 = add nuw nsw i64 %.026.i21, 1
  %58 = and i64 %57, -9223372036854775801
  %.not34 = icmp eq i64 %58, 0
  br i1 %.not34, label %.critedge2.i22, label %.critedge.i25

.critedge.i25:                                    ; preds = %.lr.ph27.i20
  %59 = add nsw i64 %.026.i21, -1
  %60 = and i64 %.026.i21, 63
  %61 = shl nuw i64 1, %60
  %62 = ashr i64 %.026.i21, 6
  %gep24.i26 = getelementptr i64, ptr %invariant.gep.i, i64 %62
  %63 = load i64, ptr %gep24.i26, align 8
  %64 = or i64 %63, %61
  store i64 %64, ptr %gep24.i26, align 8
  %.not18.not.i27 = icmp sgt i64 %.026.i21, 0
  br i1 %.not18.not.i27, label %.lr.ph27.i20, label %bit_nset.exit, !llvm.loop !13

.critedge2.i22:                                   ; preds = %.lr.ph27.i20
  %.not35 = icmp eq i64 %.026.i21, 0
  br i1 %.not35, label %bit_nset.exit, label %65

65:                                               ; preds = %.critedge2.i22
  %66 = lshr exact i64 %57, 3
  tail call void @llvm.memset.p0.i64(ptr noundef nonnull align 1 dereferenceable(1) %invariant.gep.i, i8 -1, i64 %66, i1 false)
  br label %bit_nset.exit

bit_nset.exit:                                    ; preds = %.critedge.i25, %bit_nclear.exit, %65, %.critedge2.i22, %23, %bit_set_count.exit
  ret void
}